; ModuleID = 'source-C-CXX/3/984.cpp'
source_filename = "source-C-CXX/3/984.cpp"
target datalayout = "e-m:e-p270:32:32-p271:32:32-p272:64:64-i64:64-f80:128-n8:16:32:64-S128"
target triple = "x86_64-pc-linux-gnu"

%"class.std::ios_base::Init" = type { i8 }
%"class.std::basic_istream" = type { i32 (...)**, i64, %"class.std::basic_ios" }
%"class.std::basic_ios" = type { %"class.std::ios_base", %"class.std::basic_ostream"*, i8, i8, %"class.std::basic_streambuf"*, %"class.std::ctype"*, %"class.std::num_put"*, %"class.std::num_get"* }
%"class.std::ios_base" = type { i32 (...)**, i64, i64, i32, i32, i32, %"struct.std::ios_base::_Callback_list"*, %"struct.std::ios_base::_Words", [8 x %"struct.std::ios_base::_Words"], i32, %"struct.std::ios_base::_Words"*, %"class.std::locale" }
%"struct.std::ios_base::_Callback_list" = type { %"struct.std::ios_base::_Callback_list"*, void (i32, %"class.std::ios_base"*, i32)*, i32, i32 }
%"struct.std::ios_base::_Words" = type { i8*, i64 }
%"class.std::locale" = type { %"class.std::locale::_Impl"* }
%"class.std::locale::_Impl" = type { i32, %"class.std::locale::facet"**, i64, %"class.std::locale::facet"**, i8** }
%"class.std::locale::facet" = type <{ i32 (...)**, i32, [4 x i8] }>
%"class.std::basic_ostream" = type { i32 (...)**, %"class.std::basic_ios" }
%"class.std::basic_streambuf" = type { i32 (...)**, i8*, i8*, i8*, i8*, i8*, i8*, %"class.std::locale" }
%"class.std::ctype" = type <{ %"class.std::locale::facet.base", [4 x i8], %struct.__locale_struct*, i8, [7 x i8], i32*, i32*, i16*, i8, [256 x i8], [256 x i8], i8, [6 x i8] }>
%"class.std::locale::facet.base" = type <{ i32 (...)**, i32 }>
%struct.__locale_struct = type { [13 x %struct.__locale_data*], i16*, i32*, i32*, [13 x i8*] }
%struct.__locale_data = type opaque
%"class.std::num_put" = type { %"class.std::locale::facet.base", [4 x i8] }
%"class.std::num_get" = type { %"class.std::locale::facet.base", [4 x i8] }

@_ZStL8__ioinit = internal global %"class.std::ios_base::Init" zeroinitializer, align 1
@__dso_handle = external hidden global i8
@_ZSt3cin = external global %"class.std::basic_istream", align 8
@_ZSt4cout = external global %"class.std::basic_ostream", align 8
@llvm.global_ctors = appending global [1 x { i32, void ()*, i8* }] [{ i32, void ()*, i8* } { i32 65535, void ()* @_GLOBAL__sub_I_984.cpp, i8* null }]

declare void @_ZNSt8ios_base4InitC1Ev(%"class.std::ios_base::Init"* nonnull align 1 dereferenceable(1)) unnamed_addr #0

; Function Attrs: nounwind
declare void @_ZNSt8ios_base4InitD1Ev(%"class.std::ios_base::Init"* nonnull align 1 dereferenceable(1)) unnamed_addr #1

; Function Attrs: nofree nounwind
declare i32 @__cxa_atexit(void (i8*)*, i8*, i8*) local_unnamed_addr #2

; Function Attrs: mustprogress norecurse sspstrong uwtable
define dso_local i32 @main() local_unnamed_addr #3 {
  %1 = alloca i32, align 4
  %2 = alloca i32, align 4
  %3 = bitcast i32* %1 to i8*
  call void @llvm.lifetime.start.p0i8(i64 4, i8* nonnull %3) #8
  %4 = bitcast i32* %2 to i8*
  call void @llvm.lifetime.start.p0i8(i64 4, i8* nonnull %4) #8
  %5 = call nonnull align 8 dereferenceable(16) %"class.std::basic_istream"* @_ZNSirsERi(%"class.std::basic_istream"* nonnull align 8 dereferenceable(16) @_ZSt3cin, i32* nonnull align 4 dereferenceable(4) %1)
  %6 = call nonnull align 8 dereferenceable(16) %"class.std::basic_istream"* @_ZNSirsERi(%"class.std::basic_istream"* nonnull align 8 dereferenceable(16) %5, i32* nonnull align 4 dereferenceable(4) %2)
  %7 = load i32, i32* %1, align 4, !tbaa !5
  %8 = zext i32 %7 to i64
  %9 = load i32, i32* %2, align 4, !tbaa !5
  %10 = zext i32 %9 to i64
  %11 = call i8* @llvm.stacksave()
  %12 = mul nuw i64 %10, %8
  %13 = alloca i32, i64 %12, align 16
  %14 = load i32, i32* %1, align 4, !tbaa !5
  %15 = icmp sgt i32 %14, 0
  %16 = load i32, i32* %2, align 4, !tbaa !5
  %17 = icmp sgt i32 %16, 0
  %18 = select i1 %15, i1 %17, i1 false
  br i1 %18, label %27, label %19

19:                                               ; preds = %44, %0
  %20 = phi i32 [ %16, %0 ], [ %46, %44 ]
  %21 = phi i32 [ %14, %0 ], [ %45, %44 ]
  %22 = add i32 %21, -2
  %23 = add i32 %22, %20
  %24 = icmp sgt i32 %23, -1
  %25 = icmp sgt i32 %21, 0
  %26 = select i1 %24, i1 %25, i1 false
  br i1 %26, label %50, label %136

27:                                               ; preds = %0, %44
  %28 = phi i32 [ %45, %44 ], [ %14, %0 ]
  %29 = phi i32 [ %46, %44 ], [ %16, %0 ]
  %30 = phi i64 [ %47, %44 ], [ 0, %0 ]
  %31 = mul nuw nsw i64 %30, %10
  %32 = icmp sgt i32 %29, 0
  br i1 %32, label %33, label %44

33:                                               ; preds = %27, %33
  %34 = phi i64 [ %38, %33 ], [ 0, %27 ]
  %35 = add nuw nsw i64 %31, %34
  %36 = getelementptr inbounds i32, i32* %13, i64 %35
  %37 = call nonnull align 8 dereferenceable(16) %"class.std::basic_istream"* @_ZNSirsERi(%"class.std::basic_istream"* nonnull align 8 dereferenceable(16) @_ZSt3cin, i32* nonnull align 4 dereferenceable(4) %36)
  %38 = add nuw nsw i64 %34, 1
  %39 = load i32, i32* %2, align 4, !tbaa !5
  %40 = sext i32 %39 to i64
  %41 = icmp slt i64 %38, %40
  br i1 %41, label %33, label %42, !llvm.loop !9

42:                                               ; preds = %33
  %43 = load i32, i32* %1, align 4, !tbaa !5
  br label %44

44:                                               ; preds = %42, %27
  %45 = phi i32 [ %43, %42 ], [ %28, %27 ]
  %46 = phi i32 [ %39, %42 ], [ %29, %27 ]
  %47 = add nuw nsw i64 %30, 1
  %48 = sext i32 %45 to i64
  %49 = icmp slt i64 %47, %48
  br i1 %49, label %27, label %19, !llvm.loop !11

50:                                               ; preds = %19, %128
  %51 = phi i32 [ %129, %128 ], [ %20, %19 ]
  %52 = phi i32 [ %130, %128 ], [ %21, %19 ]
  %53 = phi i64 [ %131, %128 ], [ 0, %19 ]
  %54 = icmp sgt i32 %52, 0
  %55 = icmp sgt i32 %51, 0
  %56 = select i1 %54, i1 %55, i1 false
  br i1 %56, label %57, label %128

57:                                               ; preds = %50, %119
  %58 = phi i32 [ %120, %119 ], [ %51, %50 ]
  %59 = phi i32 [ %121, %119 ], [ %52, %50 ]
  %60 = phi i32 [ %122, %119 ], [ %52, %50 ]
  %61 = phi i32 [ %123, %119 ], [ %51, %50 ]
  %62 = phi i32 [ %124, %119 ], [ %51, %50 ]
  %63 = phi i64 [ %125, %119 ], [ 0, %50 ]
  %64 = icmp sgt i32 %62, 0
  br i1 %64, label %65, label %119

65:                                               ; preds = %57
  %66 = trunc i64 %63 to i32
  br label %67

67:                                               ; preds = %65, %111
  %68 = phi i32 [ %58, %65 ], [ %112, %111 ]
  %69 = phi i32 [ %61, %65 ], [ %113, %111 ]
  %70 = phi i64 [ 0, %65 ], [ %114, %111 ]
  %71 = phi i32 [ %62, %65 ], [ %113, %111 ]
  %72 = add nuw nsw i64 %70, %63
  %73 = icmp eq i64 %72, %53
  br i1 %73, label %74, label %111

74:                                               ; preds = %67
  %75 = mul nsw i32 %71, %66
  %76 = sext i32 %75 to i64
  %77 = add nsw i64 %70, %76
  %78 = getelementptr inbounds i32, i32* %13, i64 %77
  %79 = load i32, i32* %78, align 4, !tbaa !5
  %80 = call nonnull align 8 dereferenceable(8) %"class.std::basic_ostream"* @_ZNSolsEi(%"class.std::basic_ostream"* nonnull align 8 dereferenceable(8) @_ZSt4cout, i32 %79)
  %81 = bitcast %"class.std::basic_ostream"* %80 to i8**
  %82 = load i8*, i8** %81, align 8, !tbaa !13
  %83 = getelementptr i8, i8* %82, i64 -24
  %84 = bitcast i8* %83 to i64*
  %85 = load i64, i64* %84, align 8
  %86 = bitcast %"class.std::basic_ostream"* %80 to i8*
  %87 = add nsw i64 %85, 240
  %88 = getelementptr inbounds i8, i8* %86, i64 %87
  %89 = bitcast i8* %88 to %"class.std::ctype"**
  %90 = load %"class.std::ctype"*, %"class.std::ctype"** %89, align 8, !tbaa !15
  %91 = icmp eq %"class.std::ctype"* %90, null
  br i1 %91, label %92, label %93

92:                                               ; preds = %74
  call void @_ZSt16__throw_bad_castv() #9
  unreachable

93:                                               ; preds = %74
  %94 = getelementptr inbounds %"class.std::ctype", %"class.std::ctype"* %90, i64 0, i32 8
  %95 = load i8, i8* %94, align 8, !tbaa !19
  %96 = icmp eq i8 %95, 0
  br i1 %96, label %100, label %97

97:                                               ; preds = %93
  %98 = getelementptr inbounds %"class.std::ctype", %"class.std::ctype"* %90, i64 0, i32 9, i64 10
  %99 = load i8, i8* %98, align 1, !tbaa !21
  br label %106

100:                                              ; preds = %93
  call void @_ZNKSt5ctypeIcE13_M_widen_initEv(%"class.std::ctype"* nonnull align 8 dereferenceable(570) %90)
  %101 = bitcast %"class.std::ctype"* %90 to i8 (%"class.std::ctype"*, i8)***
  %102 = load i8 (%"class.std::ctype"*, i8)**, i8 (%"class.std::ctype"*, i8)*** %101, align 8, !tbaa !13
  %103 = getelementptr inbounds i8 (%"class.std::ctype"*, i8)*, i8 (%"class.std::ctype"*, i8)** %102, i64 6
  %104 = load i8 (%"class.std::ctype"*, i8)*, i8 (%"class.std::ctype"*, i8)** %103, align 8
  %105 = call signext i8 %104(%"class.std::ctype"* nonnull align 8 dereferenceable(570) %90, i8 signext 10)
  br label %106

106:                                              ; preds = %97, %100
  %107 = phi i8 [ %99, %97 ], [ %105, %100 ]
  %108 = call nonnull align 8 dereferenceable(8) %"class.std::basic_ostream"* @_ZNSo3putEc(%"class.std::basic_ostream"* nonnull align 8 dereferenceable(8) %80, i8 signext %107)
  %109 = call nonnull align 8 dereferenceable(8) %"class.std::basic_ostream"* @_ZNSo5flushEv(%"class.std::basic_ostream"* nonnull align 8 dereferenceable(8) %108)
  %110 = load i32, i32* %2, align 4, !tbaa !5
  br label %111

111:                                              ; preds = %67, %106
  %112 = phi i32 [ %68, %67 ], [ %110, %106 ]
  %113 = phi i32 [ %69, %67 ], [ %110, %106 ]
  %114 = add nuw nsw i64 %70, 1
  %115 = sext i32 %113 to i64
  %116 = icmp slt i64 %114, %115
  br i1 %116, label %67, label %117, !llvm.loop !22

117:                                              ; preds = %111
  %118 = load i32, i32* %1, align 4, !tbaa !5
  br label %119

119:                                              ; preds = %117, %57
  %120 = phi i32 [ %112, %117 ], [ %58, %57 ]
  %121 = phi i32 [ %118, %117 ], [ %59, %57 ]
  %122 = phi i32 [ %118, %117 ], [ %60, %57 ]
  %123 = phi i32 [ %113, %117 ], [ %61, %57 ]
  %124 = phi i32 [ %113, %117 ], [ %62, %57 ]
  %125 = add nuw nsw i64 %63, 1
  %126 = sext i32 %122 to i64
  %127 = icmp slt i64 %125, %126
  br i1 %127, label %57, label %128, !llvm.loop !23

128:                                              ; preds = %119, %50
  %129 = phi i32 [ %51, %50 ], [ %120, %119 ]
  %130 = phi i32 [ %52, %50 ], [ %121, %119 ]
  %131 = add nuw nsw i64 %53, 1
  %132 = add i32 %130, -2
  %133 = add i32 %132, %129
  %134 = sext i32 %133 to i64
  %135 = icmp slt i64 %53, %134
  br i1 %135, label %50, label %136, !llvm.loop !24

136:                                              ; preds = %128, %19
  call void @llvm.stackrestore(i8* %11)
  call void @llvm.lifetime.end.p0i8(i64 4, i8* nonnull %4) #8
  call void @llvm.lifetime.end.p0i8(i64 4, i8* nonnull %3) #8
  ret i32 0
}

; Function Attrs: argmemonly mustprogress nofree nosync nounwind willreturn
declare void @llvm.lifetime.start.p0i8(i64 immarg, i8* nocapture) #4

declare nonnull align 8 dereferenceable(16) %"class.std::basic_istream"* @_ZNSirsERi(%"class.std::basic_istream"* nonnull align 8 dereferenceable(16), i32* nonnull align 4 dereferenceable(4)) local_unnamed_addr #0

; Function Attrs: mustprogress nofree nosync nounwind willreturn
declare i8* @llvm.stacksave() #5

declare nonnull align 8 dereferenceable(8) %"class.std::basic_ostream"* @_ZNSolsEi(%"class.std::basic_ostream"* nonnull align 8 dereferenceable(8), i32) local_unnamed_addr #0

; Function Attrs: argmemonly mustprogress nofree nosync nounwind willreturn
declare void @llvm.lifetime.end.p0i8(i64 immarg, i8* nocapture) #4

; Function Attrs: mustprogress nofree nosync nounwind willreturn
declare void @llvm.stackrestore(i8*) #5

declare nonnull align 8 dereferenceable(8) %"class.std::basic_ostream"* @_ZNSo3putEc(%"class.std::basic_ostream"* nonnull align 8 dereferenceable(8), i8 signext) local_unnamed_addr #0

declare nonnull align 8 dereferenceable(8) %"class.std::basic_ostream"* @_ZNSo5flushEv(%"class.std::basic_ostream"* nonnull align 8 dereferenceable(8)) local_unnamed_addr #0

; Function Attrs: noreturn
declare void @_ZSt16__throw_bad_castv() local_unnamed_addr #6

declare void @_ZNKSt5ctypeIcE13_M_widen_initEv(%"class.std::ctype"* nonnull align 8 dereferenceable(570)) local_unnamed_addr #0

; Function Attrs: sspstrong uwtable
define internal void @_GLOBAL__sub_I_984.cpp() #7 section ".text.startup" {
  tail call void @_ZNSt8ios_base4InitC1Ev(%"class.std::ios_base::Init"* nonnull align 1 dereferenceable(1) @_ZStL8__ioinit)
  %1 = tail call i32 @__cxa_atexit(void (i8*)* bitcast (void (%"class.std::ios_base::Init"*)* @_ZNSt8ios_base4InitD1Ev to void (i8*)*), i8* getelementptr inbounds (%"class.std::ios_base::Init", %"class.std::ios_base::Init"* @_ZStL8__ioinit, i64 0, i32 0), i8* nonnull @__dso_handle) #8
  ret void
}


!llvm.module.flags = !{!0, !1, !2, !3}
!llvm.ident = !{!4}

!0 = !{i32 1, !"wchar_size", i32 4}
!1 = !{i32 7, !"PIC Level", i32 2}
!2 = !{i32 7, !"PIE Level", i32 2}
!3 = !{i32 7, !"uwtable", i32 1}
!4 = !{!"clang version 13.0.0"}
!5 = !{!6, !6, i64 0}
!6 = !{!"int", !7, i64 0}
!7 = !{!"omnipotent char", !8, i64 0}
!8 = !{!"Simple C++ TBAA"}
!9 = distinct !{!9, !10}
!10 = !{!"llvm.loop.mustprogress"}
!11 = distinct !{!11, !10, !12}
!12 = !{!"llvm.loop.unswitch.partial.disable"}
!13 = !{!14, !14, i64 0}
!14 = !{!"vtable pointer", !8, i64 0}
!15 = !{!16, !17, i64 240}
!16 = !{!"_ZTSSt9basic_iosIcSt11char_traitsIcEE", !17, i64 216, !7, i64 224, !18, i64 225, !17, i64 232, !17, i64 240, !17, i64 248, !17, i64 256}
!17 = !{!"any pointer", !7, i64 0}
!18 = !{!"bool", !7, i64 0}
!19 = !{!20, !7, i64 56}
!20 = !{!"_ZTSSt5ctypeIcE", !17, i64 16, !18, i64 24, !17, i64 32, !17, i64 40, !17, i64 48, !7, i64 56, !7, i64 57, !7, i64 313, !7, i64 569}
!21 = !{!7, !7, i64 0}
!22 = distinct !{!22, !10}
!23 = distinct !{!23, !10, !12}
!24 = distinct !{!24, !10, !12}
